; Function Attrs: nounwind uwtable
define void @_ZN7mitsuba6ThreadD2Ev(ptr noundef nonnull align 8 dereferenceable(24) %0) unnamed_addr #8 align 2 personality ptr @__gxx_personality_v0 {
  %2 = alloca %"class.std::__1::basic_string", align 8
  store ptr getelementptr inbounds inrange(-16, 80) ({ [12 x ptr] }, ptr @_ZTVN7mitsuba6ThreadE, i64 0, i32 0, i64 2), ptr %0, align 8
  %3 = getelementptr inbounds i8, ptr %0, i64 16
  %4 = load ptr, ptr %3, align 8
  %5 = getelementptr inbounds i8, ptr %4, i64 40
  %6 = load i8, ptr %5, align 8
  %7 = and i8 %6, 1
  %.not = icmp eq i8 %7, 0
  br i1 %.not, label %28, label %8

8:                                                ; preds = %1
  %9 = load ptr, ptr @_ZN7mitsuba6Thread7m_classE, align 8
  %10 = getelementptr inbounds i8, ptr %4, i64 16
  %.b.i.i.i = load i1, ptr @__tls_guard, align 1
  br i1 %.b.i.i.i, label %12, label %11, !prof !4

11:                                               ; preds = %8
  store i1 true, ptr @__tls_guard, align 1
  invoke fastcc void @__cxx_global_var_init.1()
          to label %12 unwind label %29

12:                                               ; preds = %11, %8
  %13 = tail call align 8 ptr @llvm.threadlocal.address.p0(ptr align 8 @_ZN7mitsubaL4selfE)
  %14 = load ptr, ptr %13, align 8
  %15 = getelementptr inbounds i8, ptr %14, i64 16
  %16 = load ptr, ptr %15, align 8
  %17 = getelementptr inbounds i8, ptr %16, i64 56
  %18 = load ptr, ptr %17, align 8
  %.not12 = icmp eq ptr %18, null
  br i1 %.not12, label %28, label %19

19:                                               ; preds = %12
  %20 = getelementptr inbounds i8, ptr %18, i64 12
  %21 = load i32, ptr %20, align 4
  %22 = icmp slt i32 %21, 301
  br i1 %22, label %23, label %28

23:                                               ; preds = %19
  invoke void @_ZN10tinyformat6formatIJNSt3__112basic_stringIcNS1_11char_traitsIcEENS1_9allocatorIcEEEEEEES7_PKcDpRKT_(ptr dead_on_unwind nonnull writable sret(%"class.std::__1::basic_string") align 8 %2, ptr noundef nonnull @.str.2, ptr noundef nonnull align 8 dereferenceable(24) %10)
          to label %24 unwind label %29

24:                                               ; preds = %23
  invoke void @_ZN7mitsuba6Logger3logENS_8LogLevelEPKNS_5ClassEPKciRKNSt3__112basic_stringIcNS7_11char_traitsIcEENS7_9allocatorIcEEEE(ptr noundef nonnull align 8 dereferenceable(24) %18, i32 noundef 300, ptr noundef %9, ptr noundef nonnull @.str, i32 noundef 131, ptr noundef nonnull align 8 dereferenceable(24) %2)
          to label %25 unwind label %26

25:                                               ; preds = %24
  call void @_ZNSt3__112basic_stringIcNS_11char_traitsIcEENS_9allocatorIcEEED1Ev(ptr noundef nonnull align 8 dereferenceable(24) %2) #3
  br label %28

26:                                               ; preds = %24
  %27 = landingpad { ptr, i32 }
          catch ptr null
  call void @_ZNSt3__112basic_stringIcNS_11char_traitsIcEENS_9allocatorIcEEED1Ev(ptr noundef nonnull align 8 dereferenceable(24) %2) #3
  br label %31

28:                                               ; preds = %25, %19, %12, %1
  call void @_ZNSt3__110unique_ptrIN7mitsuba6Thread13ThreadPrivateENS_14default_deleteIS3_EEE5resetB8ne190000EPS3_(ptr noundef nonnull align 8 dereferenceable(8) %3, ptr noundef null) #3
  call void @_ZN7mitsuba6ObjectD2Ev(ptr noundef nonnull align 8 dereferenceable(12) %0) #3
  ret void

29:                                               ; preds = %11, %23
  %30 = landingpad { ptr, i32 }
          catch ptr null
  br label %31

31:                                               ; preds = %29, %26
  %32 = phi { ptr, i32 } [ %30, %29 ], [ %27, %26 ]
  %33 = extractvalue { ptr, i32 } %32, 0
  call void @__clang_call_terminate(ptr %33) #33
  unreachable
}